; Function Attrs: nounwind uwtable
define hidden void @EVP_AEAD_CTX_cleanup(ptr noundef %0) local_unnamed_addr #3 {
  %2 = load ptr, ptr %0, align 8, !tbaa !15
  %3 = icmp eq ptr %2, null
  br i1 %3, label %7, label %4

4:                                                ; preds = %1
  %5 = getelementptr inbounds nuw i8, ptr %2, i64 24
  %6 = load ptr, ptr %5, align 8, !tbaa !19
  tail call void %6(ptr noundef nonnull %0) #5
  store ptr null, ptr %0, align 8, !tbaa !15
  br label %7

7:                                                ; preds = %1, %4
  ret void
}